; ModuleID = '15/2095.c'
source_filename = "15/2095.c"
target datalayout = "e-m:e-p270:32:32-p271:32:32-p272:64:64-i64:64-f80:128-n8:16:32:64-S128"
target triple = "x86_64-pc-linux-gnu"

@.str = private unnamed_addr constant [3 x i8] c"%d\00", align 1

; Function Attrs: noinline nounwind uwtable
define dso_local i32 @main() #0 {
  %1 = alloca i32, align 4
  %2 = alloca i32, align 4
  %3 = alloca i32, align 4
  %4 = alloca i32, align 4
  %5 = alloca i32, align 4
  %6 = alloca i32, align 4
  %7 = alloca i32, align 4
  %8 = alloca i32, align 4
  store i32 0, i32* %1, align 4
  store i32 0, i32* %7, align 4
  %9 = call i32 (i8*, ...) @__isoc99_scanf(i8* getelementptr inbounds ([3 x i8], [3 x i8]* @.str, i64 0, i64 0), i32* %2)
  store i32 1, i32* %3, align 4
  br label %10

10:                                               ; preds = %41, %0
  %11 = load i32, i32* %3, align 4
  %12 = load i32, i32* %2, align 4
  %13 = icmp sle i32 %11, %12
  br i1 %13, label %14, label %44

14:                                               ; preds = %10
  store i32 0, i32* %6, align 4
  store i32 1, i32* %4, align 4
  br label %15

15:                                               ; preds = %30, %14
  %16 = load i32, i32* %4, align 4
  %17 = load i32, i32* %2, align 4
  %18 = icmp sle i32 %16, %17
  br i1 %18, label %19, label %33

19:                                               ; preds = %15
  %20 = call i32 (i8*, ...) @__isoc99_scanf(i8* getelementptr inbounds ([3 x i8], [3 x i8]* @.str, i64 0, i64 0), i32* %5)
  %21 = load i32, i32* %5, align 4
  %22 = icmp eq i32 %21, 0
  br i1 %22, label %23, label %26

23:                                               ; preds = %19
  %24 = load i32, i32* %6, align 4
  %25 = add nsw i32 %24, 1
  store i32 %25, i32* %6, align 4
  br label %29

26:                                               ; preds = %19
  %27 = load i32, i32* %6, align 4
  %28 = add nsw i32 %27, 0
  store i32 %28, i32* %6, align 4
  br label %29

29:                                               ; preds = %26, %23
  br label %30

30:                                               ; preds = %29
  %31 = load i32, i32* %4, align 4
  %32 = add nsw i32 %31, 1
  store i32 %32, i32* %4, align 4
  br label %15

33:                                               ; preds = %15
  %34 = load i32, i32* %6, align 4
  %35 = icmp ne i32 %34, 0
  br i1 %35, label %36, label %40

36:                                               ; preds = %33
  %37 = load i32, i32* %7, align 4
  %38 = add nsw i32 %37, 1
  store i32 %38, i32* %7, align 4
  %39 = load i32, i32* %6, align 4
  store i32 %39, i32* %8, align 4
  br label %40

40:                                               ; preds = %36, %33
  br label %41

41:                                               ; preds = %40
  %42 = load i32, i32* %3, align 4
  %43 = add nsw i32 %42, 1
  store i32 %43, i32* %3, align 4
  br label %10

44:                                               ; preds = %10
  %45 = load i32, i32* %7, align 4
  %46 = sub nsw i32 %45, 2
  %47 = load i32, i32* %8, align 4
  %48 = sub nsw i32 %47, 2
  %49 = mul nsw i32 %46, %48
  %50 = call i32 (i8*, ...) @printf(i8* getelementptr inbounds ([3 x i8], [3 x i8]* @.str, i64 0, i64 0), i32 %49)
  ret i32 0
}

declare dso_local i32 @__isoc99_scanf(i8*, ...) #1

declare dso_local i32 @printf(i8*, ...) #1


!llvm.module.flags = !{!0}
!llvm.ident = !{!1}

!0 = !{i32 1, !"wchar_size", i32 4}
!1 = !{!"clang version 10.0.0-4ubuntu1 "}
